target datalayout = "e-m:e-p270:32:32-p271:32:32-p272:64:64-i64:64-i128:128-f80:128-n8:16:32:64-S128"
target triple = "x86_64-pc-linux-gnu"

%union.SourceSpan = type { i64 }
%struct.Signature_ = type <{ %struct.CalleeAttributes, i16, i8, i32, i32, [4 x i8], ptr }>
%struct.CalleeAttributes = type { i8 }
%struct.Decl_ = type { ptr, ptr, %union.SourceSpan, i64, %union.anon, i32, %union.anon.0, i64, ptr, ptr, ptr, %union.anon.1 }
%union.anon = type { ptr }
%union.anon.0 = type { i16 }
%union.anon.1 = type { %struct.FuncDecl }
%struct.FuncDecl = type { i32, [4 x i8], %struct.Signature_, i32, i32, %union.anon.8 }
%union.anon.8 = type { %struct.anon.9 }
%struct.anon.9 = type { i16, %union.anon.10 }
%union.anon.10 = type { ptr }
%struct.Type_ = type { i32, ptr, ptr, ptr, %union.anon.85, ptr, ptr, %union.anon.87 }
%union.anon.85 = type { ptr }
%union.anon.87 = type { %struct.TypeFunction }
%struct.TypeFunction = type { ptr, ptr, ptr }
%struct.TypeInfo_ = type { i16, ptr, %union.SourceSpan, %union.anon.56 }
%union.anon.56 = type { %struct.anon.57 }
%struct.anon.57 = type { ptr, ptr }
%struct.anon.2 = type { ptr, ptr, %union.anon.3 }
%union.anon.3 = type { %struct.BitStructDecl }
%struct.BitStructDecl = type { ptr, ptr, i8 }

@.str.2 = private unnamed_addr constant [36 x i8] c"FATAL ERROR %s -> in %s @ in %s:%d \00", align 1
@.str.3 = private unnamed_addr constant [22 x i8] c"Should be unreachable\00", align 1
@type_void = external global ptr, align 8
@.str.52 = private unnamed_addr constant [85 x i8] c"C-style 'foo(void)' style argument declarations are not valid, please remove 'void'.\00", align 1
@.str.53 = private unnamed_addr constant [38 x i8] c"Parameters may not be of type 'void'.\00", align 1
@.str.54 = private unnamed_addr constant [31 x i8] c"Duplicate parameter name '%s'.\00", align 1
@.str.55 = private unnamed_addr constant [35 x i8] c"Previous use of the name was here.\00", align 1
@__func__.type_flatten = private unnamed_addr constant [13 x i8] c"type_flatten\00", align 1
@.str.56 = private unnamed_addr constant [118 x i8] c"generated/home/dtcxzyw/WorkSpace/Projects/compilers/llvm-opt-benchmark/bench/c3c/c3c/src/compiler/compiler_internal.h\00", align 1

; Function Attrs: nounwind uwtable
define internal ptr @type_flatten(ptr noundef %0) #0 {
  %2 = alloca ptr, align 8
  store ptr %0, ptr %2, align 8
  br label %3

3:                                                ; preds = %28, %1
  %4 = load ptr, ptr %2, align 8
  %5 = getelementptr inbounds %struct.Type_, ptr %4, i32 0, i32 1
  %6 = load ptr, ptr %5, align 8
  store ptr %6, ptr %2, align 8
  %7 = load ptr, ptr %2, align 8
  %8 = getelementptr inbounds %struct.Type_, ptr %7, i32 0, i32 0
  %9 = load i32, ptr %8, align 8
  switch i32 %9, label %26 [
    i32 32, label %10
    i32 40, label %19
    i32 31, label %23
  ]

10:                                               ; preds = %3
  %11 = load ptr, ptr %2, align 8
  %12 = getelementptr inbounds %struct.Type_, ptr %11, i32 0, i32 7
  %13 = load ptr, ptr %12, align 8
  %14 = getelementptr inbounds %struct.Decl_, ptr %13, i32 0, i32 11
  %15 = getelementptr inbounds %struct.anon.2, ptr %14, i32 0, i32 2
  %16 = load ptr, ptr %15, align 8
  %17 = getelementptr inbounds %struct.TypeInfo_, ptr %16, i32 0, i32 1
  %18 = load ptr, ptr %17, align 8
  store ptr %18, ptr %2, align 8
  br label %28

19:                                               ; preds = %3
  %20 = load ptr, ptr %2, align 8
  %21 = getelementptr inbounds %struct.Type_, ptr %20, i32 0, i32 7
  %22 = load ptr, ptr %21, align 8
  store ptr %22, ptr %2, align 8
  br label %28

23:                                               ; preds = %3
  br label %24

24:                                               ; preds = %23
  call void (ptr, ...) @error_exit(ptr noundef @.str.2, ptr noundef @.str.3, ptr noundef @__func__.type_flatten, ptr noundef @.str.56, i32 noundef 2984) #6
  unreachable

25:                                               ; No predecessors!
  br label %26

26:                                               ; preds = %25, %3
  %27 = load ptr, ptr %2, align 8
  ret ptr %27

28:                                               ; preds = %19, %10
  br label %3
}

; Function Attrs: nounwind uwtable
define internal zeroext i1 @sema_check_param_uniqueness_and_type(ptr noundef %0, ptr noundef %1, i32 noundef %2, i32 noundef %3) #0 {
  %5 = alloca ptr, align 8
  %6 = alloca i1, align 1
  %7 = alloca ptr, align 8
  %8 = alloca ptr, align 8
  %9 = alloca i32, align 4
  %10 = alloca i32, align 4
  %11 = alloca ptr, align 8
  %12 = alloca i32, align 4
  store ptr %0, ptr %7, align 8
  store ptr %1, ptr %8, align 8
  store i32 %2, ptr %9, align 4
  store i32 %3, ptr %10, align 4
  %13 = load ptr, ptr %8, align 8
  %14 = getelementptr inbounds %struct.Decl_, ptr %13, i32 0, i32 10
  %15 = load ptr, ptr %14, align 8
  %16 = icmp ne ptr %15, null
  br i1 %16, label %17, label %52

17:                                               ; preds = %4
  %18 = load ptr, ptr %8, align 8
  %19 = getelementptr inbounds %struct.Decl_, ptr %18, i32 0, i32 10
  %20 = load ptr, ptr %19, align 8
  %21 = call ptr @type_flatten(ptr noundef %20)
  %22 = load ptr, ptr @type_void, align 8
  %23 = icmp eq ptr %21, %22
  br i1 %23, label %24, label %52

24:                                               ; preds = %17
  %25 = load i32, ptr %10, align 4
  %26 = icmp eq i32 %25, 1
  br i1 %26, label %27, label %45

27:                                               ; preds = %24
  %28 = load ptr, ptr %8, align 8
  %29 = getelementptr inbounds %struct.Decl_, ptr %28, i32 0, i32 0
  %30 = load ptr, ptr %29, align 8
  %31 = icmp ne ptr %30, null
  br i1 %31, label %45, label %32

32:                                               ; preds = %27
  %33 = load ptr, ptr %8, align 8
  %34 = getelementptr inbounds %struct.Decl_, ptr %33, i32 0, i32 11
  %35 = load i32, ptr %34, align 8
  %36 = and i32 %35, 255
  %37 = icmp eq i32 %36, 3
  br i1 %37, label %38, label %45

38:                                               ; preds = %32
  br label %39

39:                                               ; preds = %38
  %40 = load ptr, ptr %8, align 8
  %41 = getelementptr inbounds %struct.Decl_, ptr %40, i32 0, i32 2
  %42 = getelementptr inbounds %union.SourceSpan, ptr %41, i32 0, i32 0
  %43 = load i64, ptr %42, align 8
  call void (i64, ptr, ...) @sema_error_at(i64 %43, ptr noundef @.str.52)
  store i1 false, ptr %6, align 1
  br label %110

44:                                               ; No predecessors!
  br label %45

45:                                               ; preds = %44, %32, %27, %24
  br label %46

46:                                               ; preds = %45
  %47 = load ptr, ptr %8, align 8
  %48 = getelementptr inbounds %struct.Decl_, ptr %47, i32 0, i32 2
  %49 = getelementptr inbounds %union.SourceSpan, ptr %48, i32 0, i32 0
  %50 = load i64, ptr %49, align 8
  call void (i64, ptr, ...) @sema_error_at(i64 %50, ptr noundef @.str.53)
  store i1 false, ptr %6, align 1
  br label %110

51:                                               ; No predecessors!
  br label %52

52:                                               ; preds = %51, %17, %4
  %53 = load ptr, ptr %8, align 8
  %54 = getelementptr inbounds %struct.Decl_, ptr %53, i32 0, i32 0
  %55 = load ptr, ptr %54, align 8
  store ptr %55, ptr %11, align 8
  %56 = load ptr, ptr %11, align 8
  %57 = icmp ne ptr %56, null
  br i1 %57, label %59, label %58

58:                                               ; preds = %52
  store i1 true, ptr %6, align 1
  br label %110

59:                                               ; preds = %52
  store i32 0, ptr %12, align 4
  br label %60

60:                                               ; preds = %106, %59
  %61 = load i32, ptr %12, align 4
  %62 = load i32, ptr %9, align 4
  %63 = icmp ult i32 %61, %62
  br i1 %63, label %64, label %109

64:                                               ; preds = %60
  %65 = load ptr, ptr %7, align 8
  %66 = load i32, ptr %12, align 4
  %67 = sext i32 %66 to i64
  %68 = getelementptr inbounds ptr, ptr %65, i64 %67
  %69 = load ptr, ptr %68, align 8
  %70 = icmp ne ptr %69, null
  br i1 %70, label %71, label %105

71:                                               ; preds = %64
  %72 = load ptr, ptr %11, align 8
  %73 = load ptr, ptr %7, align 8
  %74 = load i32, ptr %12, align 4
  %75 = sext i32 %74 to i64
  %76 = getelementptr inbounds ptr, ptr %73, i64 %75
  %77 = load ptr, ptr %76, align 8
  %78 = getelementptr inbounds %struct.Decl_, ptr %77, i32 0, i32 0
  %79 = load ptr, ptr %78, align 8
  %80 = icmp eq ptr %72, %79
  br i1 %80, label %81, label %105

81:                                               ; preds = %71
  %82 = load ptr, ptr %8, align 8
  %83 = getelementptr inbounds %struct.Decl_, ptr %82, i32 0, i32 2
  %84 = load ptr, ptr %11, align 8
  %85 = getelementptr inbounds %union.SourceSpan, ptr %83, i32 0, i32 0
  %86 = load i64, ptr %85, align 8
  call void (i64, ptr, ...) @sema_error_at(i64 %86, ptr noundef @.str.54, ptr noundef %84)
  %87 = load ptr, ptr %7, align 8
  %88 = load i32, ptr %12, align 4
  %89 = sext i32 %88 to i64
  %90 = getelementptr inbounds ptr, ptr %87, i64 %89
  %91 = load ptr, ptr %90, align 8
  %92 = getelementptr inbounds %struct.Decl_, ptr %91, i32 0, i32 2
  %93 = getelementptr inbounds %union.SourceSpan, ptr %92, i32 0, i32 0
  %94 = load i64, ptr %93, align 8
  call void (i64, ptr, ...) @sema_error_prev_at(i64 %94, ptr noundef @.str.55)
  %95 = load ptr, ptr %8, align 8
  store ptr %95, ptr %5, align 8
  %96 = load ptr, ptr %5, align 8
  %97 = getelementptr inbounds %struct.Decl_, ptr %96, i32 0, i32 3
  %98 = load i64, ptr %97, align 8
  %99 = and i64 %98, -128
  store i64 %99, ptr %97, align 8
  %100 = load ptr, ptr %5, align 8
  %101 = getelementptr inbounds %struct.Decl_, ptr %100, i32 0, i32 3
  %102 = load i64, ptr %101, align 8
  %103 = and i64 %102, -897
  %104 = or i64 %103, 256
  store i64 %104, ptr %101, align 8
  store i1 false, ptr %6, align 1
  br label %110

105:                                              ; preds = %71, %64
  br label %106

106:                                              ; preds = %105
  %107 = load i32, ptr %12, align 4
  %108 = add nsw i32 %107, 1
  store i32 %108, ptr %12, align 4
  br label %60, !llvm.loop !33

109:                                              ; preds = %60
  store i1 true, ptr %6, align 1
  br label %110

110:                                              ; preds = %109, %81, %58, %46, %39
  %111 = load i1, ptr %6, align 1
  ret i1 %111
}