; Function Attrs: nounwind uwtable
define internal fastcc noundef zeroext i1 @sema_check_param_uniqueness_and_type(ptr nocapture noundef readonly %0, ptr nocapture noundef %1, i32 noundef %2, i32 noundef %3) unnamed_addr #0 {
  %5 = getelementptr inbounds i8, ptr %1, i64 72
  %6 = load ptr, ptr %5, align 8
  %.not = icmp eq ptr %6, null
  br i1 %.not, label %37, label %.preheader31

.preheader31:                                     ; preds = %4, %19
  %.0.i = phi ptr [ %.1.i, %19 ], [ %6, %4 ]
  %7 = getelementptr inbounds i8, ptr %.0.i, i64 8
  %8 = load ptr, ptr %7, align 8
  %9 = load i32, ptr %8, align 8
  switch i32 %9, label %type_flatten.exit [
    i32 32, label %10
    i32 40, label %16
    i32 31, label %18
  ]

10:                                               ; preds = %.preheader31
  %11 = getelementptr inbounds i8, ptr %8, i64 56
  %12 = load ptr, ptr %11, align 8
  %13 = getelementptr inbounds i8, ptr %12, i64 96
  %14 = load ptr, ptr %13, align 8
  %15 = getelementptr inbounds i8, ptr %14, i64 8
  br label %19

16:                                               ; preds = %.preheader31
  %17 = getelementptr inbounds i8, ptr %8, i64 56
  br label %19

18:                                               ; preds = %.preheader31
  tail call void (ptr, ...) @error_exit(ptr noundef nonnull @.str.2, ptr noundef nonnull @.str.3, ptr noundef nonnull @__func__.type_flatten, ptr noundef nonnull @.str.56, i32 noundef 2984) #11
  unreachable

19:                                               ; preds = %16, %10
  %.1.in.i = phi ptr [ %17, %16 ], [ %15, %10 ]
  %.1.i = load ptr, ptr %.1.in.i, align 8
  br label %.preheader31

type_flatten.exit:                                ; preds = %.preheader31
  %20 = load ptr, ptr @type_void, align 8
  %21 = icmp eq ptr %8, %20
  br i1 %21, label %22, label %37

22:                                               ; preds = %type_flatten.exit
  %23 = icmp eq i32 %3, 1
  br i1 %23, label %24, label %34

24:                                               ; preds = %22
  %25 = load ptr, ptr %1, align 8
  %.not30 = icmp eq ptr %25, null
  br i1 %.not30, label %26, label %34

26:                                               ; preds = %24
  %27 = getelementptr inbounds i8, ptr %1, i64 80
  %28 = load i32, ptr %27, align 8
  %29 = and i32 %28, 255
  %30 = icmp eq i32 %29, 3
  br i1 %30, label %31, label %34

31:                                               ; preds = %26
  %32 = getelementptr inbounds i8, ptr %1, i64 16
  %33 = load i64, ptr %32, align 8
  tail call void (i64, ptr, ...) @sema_error_at(i64 %33, ptr noundef nonnull @.str.52) #10
  br label %.loopexit

34:                                               ; preds = %22, %24, %26
  %35 = getelementptr inbounds i8, ptr %1, i64 16
  %36 = load i64, ptr %35, align 8
  tail call void (i64, ptr, ...) @sema_error_at(i64 %36, ptr noundef nonnull @.str.53) #10
  br label %.loopexit

37:                                               ; preds = %type_flatten.exit, %4
  %38 = load ptr, ptr %1, align 8
  %.not28 = icmp ne ptr %38, null
  %39 = icmp ne i32 %2, 0
  %or.cond = and i1 %.not28, %39
  br i1 %or.cond, label %.lr.ph.preheader, label %.loopexit

.lr.ph.preheader:                                 ; preds = %37
  %wide.trip.count = zext i32 %2 to i64
  br label %.lr.ph

.lr.ph:                                           ; preds = %.lr.ph.preheader, %56
  %indvars.iv = phi i64 [ 0, %.lr.ph.preheader ], [ %indvars.iv.next, %56 ]
  %40 = getelementptr inbounds ptr, ptr %0, i64 %indvars.iv
  %41 = load ptr, ptr %40, align 8
  %.not29 = icmp eq ptr %41, null
  br i1 %.not29, label %56, label %42

42:                                               ; preds = %.lr.ph
  %43 = load ptr, ptr %41, align 8
  %44 = icmp eq ptr %38, %43
  br i1 %44, label %45, label %56

45:                                               ; preds = %42
  %46 = getelementptr inbounds ptr, ptr %0, i64 %indvars.iv
  %47 = getelementptr inbounds i8, ptr %1, i64 16
  %48 = load i64, ptr %47, align 8
  tail call void (i64, ptr, ...) @sema_error_at(i64 %48, ptr noundef nonnull @.str.54, ptr noundef nonnull %38) #10
  %49 = load ptr, ptr %46, align 8
  %50 = getelementptr inbounds i8, ptr %49, i64 16
  %51 = load i64, ptr %50, align 8
  tail call void (i64, ptr, ...) @sema_error_prev_at(i64 %51, ptr noundef nonnull @.str.55) #10
  %52 = getelementptr inbounds i8, ptr %1, i64 24
  %53 = load i64, ptr %52, align 8
  %54 = and i64 %53, -1024
  %55 = or disjoint i64 %54, 256
  store i64 %55, ptr %52, align 8
  br label %.loopexit

56:                                               ; preds = %.lr.ph, %42
  %indvars.iv.next = add nuw nsw i64 %indvars.iv, 1
  %exitcond.not = icmp eq i64 %indvars.iv.next, %wide.trip.count
  br i1 %exitcond.not, label %.loopexit, label %.lr.ph, !llvm.loop !33

.loopexit:                                        ; preds = %56, %37, %45, %34, %31
  %.024 = phi i1 [ false, %34 ], [ false, %31 ], [ false, %45 ], [ true, %37 ], [ true, %56 ]
  ret i1 %.024
}